target datalayout = "e-m:e-p270:32:32-p271:32:32-p272:64:64-i64:64-i128:128-f80:128-n8:16:32:64-S128"
target triple = "x86_64-pc-linux-gnu"

@.str.61 = private unnamed_addr constant [1 x i8] zeroinitializer, align 1
@.str.158 = private unnamed_addr constant [32 x i8] c"Invalid metadata specifier %s.\0A\00", align 1
@.str.159 = private unnamed_addr constant [27 x i8] c"Invalid metadata type %c.\0A\00", align 1

; Function Attrs: nounwind uwtable
define internal i32 @parse_meta_type(ptr noundef %0, ptr noundef %1, ptr noundef %2, ptr noundef %3, ptr noundef %4) #0 {
  %6 = alloca i32, align 4
  %7 = alloca ptr, align 8
  %8 = alloca ptr, align 8
  %9 = alloca ptr, align 8
  %10 = alloca ptr, align 8
  %11 = alloca ptr, align 8
  store ptr %0, ptr %7, align 8, !tbaa !75
  store ptr %1, ptr %8, align 8, !tbaa !15
  store ptr %2, ptr %9, align 8, !tbaa !15
  store ptr %3, ptr %10, align 8, !tbaa !367
  store ptr %4, ptr %11, align 8, !tbaa !222
  %12 = load ptr, ptr %8, align 8, !tbaa !15
  %13 = load i8, ptr %12, align 1, !tbaa !175
  %14 = icmp ne i8 %13, 0
  br i1 %14, label %15, label %67

15:                                               ; preds = %5
  %16 = load ptr, ptr %8, align 8, !tbaa !15
  %17 = load i8, ptr %16, align 1, !tbaa !175
  %18 = load ptr, ptr %9, align 8, !tbaa !15
  store i8 %17, ptr %18, align 1, !tbaa !175
  %19 = load ptr, ptr %8, align 8, !tbaa !15
  %20 = load i8, ptr %19, align 1, !tbaa !175
  %21 = sext i8 %20 to i32
  switch i32 %21, label %61 [
    i32 103, label %66
    i32 115, label %22
    i32 99, label %48
    i32 112, label %48
  ]

22:                                               ; preds = %15
  %23 = load ptr, ptr %8, align 8, !tbaa !15
  %24 = getelementptr inbounds nuw i8, ptr %23, i32 1
  store ptr %24, ptr %8, align 8, !tbaa !15
  %25 = load i8, ptr %24, align 1, !tbaa !175
  %26 = sext i8 %25 to i32
  %27 = icmp ne i32 %26, 0
  br i1 %27, label %28, label %36

28:                                               ; preds = %22
  %29 = load ptr, ptr %8, align 8, !tbaa !15
  %30 = load i8, ptr %29, align 1, !tbaa !175
  %31 = sext i8 %30 to i32
  %32 = icmp ne i32 %31, 58
  br i1 %32, label %33, label %36

33:                                               ; preds = %28
  %34 = load ptr, ptr %7, align 8, !tbaa !75
  %35 = load ptr, ptr %8, align 8, !tbaa !15
  call void (ptr, i32, ptr, ...) @av_log(ptr noundef %34, i32 noundef 8, ptr noundef @.str.158, ptr noundef %35)
  store i32 -22, ptr %6, align 4
  br label %70

36:                                               ; preds = %28, %22
  %37 = load ptr, ptr %8, align 8, !tbaa !15
  %38 = load i8, ptr %37, align 1, !tbaa !175
  %39 = sext i8 %38 to i32
  %40 = icmp eq i32 %39, 58
  br i1 %40, label %41, label %44

41:                                               ; preds = %36
  %42 = load ptr, ptr %8, align 8, !tbaa !15
  %43 = getelementptr inbounds i8, ptr %42, i64 1
  br label %45

44:                                               ; preds = %36
  br label %45

45:                                               ; preds = %44, %41
  %46 = phi ptr [ %43, %41 ], [ @.str.61, %44 ]
  %47 = load ptr, ptr %11, align 8, !tbaa !222
  store ptr %46, ptr %47, align 8, !tbaa !15
  br label %66

48:                                               ; preds = %15, %15
  %49 = load ptr, ptr %8, align 8, !tbaa !15
  %50 = getelementptr inbounds nuw i8, ptr %49, i32 1
  store ptr %50, ptr %8, align 8, !tbaa !15
  %51 = load i8, ptr %50, align 1, !tbaa !175
  %52 = sext i8 %51 to i32
  %53 = icmp eq i32 %52, 58
  br i1 %53, label %54, label %60

54:                                               ; preds = %48
  %55 = load ptr, ptr %8, align 8, !tbaa !15
  %56 = getelementptr inbounds nuw i8, ptr %55, i32 1
  store ptr %56, ptr %8, align 8, !tbaa !15
  %57 = call i64 @strtol(ptr noundef %56, ptr noundef null, i32 noundef 0) #12
  %58 = trunc i64 %57 to i32
  %59 = load ptr, ptr %10, align 8, !tbaa !367
  store i32 %58, ptr %59, align 4, !tbaa !4
  br label %60

60:                                               ; preds = %54, %48
  br label %66

61:                                               ; preds = %15
  %62 = load ptr, ptr %7, align 8, !tbaa !75
  %63 = load ptr, ptr %8, align 8, !tbaa !15
  %64 = load i8, ptr %63, align 1, !tbaa !175
  %65 = sext i8 %64 to i32
  call void (ptr, i32, ptr, ...) @av_log(ptr noundef %62, i32 noundef 8, ptr noundef @.str.159, i32 noundef %65)
  store i32 -22, ptr %6, align 4
  br label %70

66:                                               ; preds = %60, %45, %15
  br label %69

67:                                               ; preds = %5
  %68 = load ptr, ptr %9, align 8, !tbaa !15
  store i8 103, ptr %68, align 1, !tbaa !175
  br label %69

69:                                               ; preds = %67, %66
  store i32 0, ptr %6, align 4
  br label %70

70:                                               ; preds = %69, %61, %33
  %71 = load i32, ptr %6, align 4
  ret i32 %71
}