; Function Attrs: nounwind uwtable
define internal fastcc range(i32 -22, 1) i32 @parse_meta_type(ptr noundef nonnull %0, ptr noundef %1, ptr noundef nonnull writeonly captures(none) initializes((0, 1)) %2, ptr noundef nonnull writeonly captures(none) %3, ptr noundef nonnull writeonly captures(none) %4) unnamed_addr #0 {
  %6 = load i8, ptr %1, align 1, !tbaa !159
  %.not = icmp eq i8 %6, 0
  br i1 %.not, label %27, label %7

7:                                                ; preds = %5
  store i8 %6, ptr %2, align 1, !tbaa !159
  %8 = load i8, ptr %1, align 1, !tbaa !159
  switch i8 %8, label %25 [
    i8 103, label %28
    i8 115, label %9
    i8 99, label %17
    i8 112, label %17
  ]

9:                                                ; preds = %7
  %10 = getelementptr inbounds nuw i8, ptr %1, i64 1
  %11 = load i8, ptr %10, align 1, !tbaa !159
  switch i8 %11, label %12 [
    i8 0, label %13
    i8 58, label %13
  ]

12:                                               ; preds = %9
  tail call void (ptr, i32, ptr, ...) @av_log(ptr noundef nonnull %0, i32 noundef 8, ptr noundef nonnull @.str.158, ptr noundef nonnull %10) #16
  br label %28

13:                                               ; preds = %9, %9
  %14 = icmp eq i8 %11, 58
  %15 = getelementptr inbounds nuw i8, ptr %1, i64 2
  %16 = select i1 %14, ptr %15, ptr @.str.61
  store ptr %16, ptr %4, align 8, !tbaa !139
  br label %28

17:                                               ; preds = %7, %7
  %18 = getelementptr inbounds nuw i8, ptr %1, i64 1
  %19 = load i8, ptr %18, align 1, !tbaa !159
  %20 = icmp eq i8 %19, 58
  br i1 %20, label %21, label %28

21:                                               ; preds = %17
  %22 = getelementptr inbounds nuw i8, ptr %1, i64 2
  %23 = tail call i64 @strtol(ptr noundef nonnull captures(none) %22, ptr noundef null, i32 noundef 0) #16
  %24 = trunc i64 %23 to i32
  store i32 %24, ptr %3, align 4, !tbaa !4
  br label %28

25:                                               ; preds = %7
  %26 = sext i8 %8 to i32
  tail call void (ptr, i32, ptr, ...) @av_log(ptr noundef nonnull %0, i32 noundef 8, ptr noundef nonnull @.str.159, i32 noundef %26) #16
  br label %28

27:                                               ; preds = %5
  store i8 103, ptr %2, align 1, !tbaa !159
  br label %28

28:                                               ; preds = %27, %17, %21, %13, %7, %25, %12
  %.0 = phi i32 [ -22, %25 ], [ -22, %12 ], [ 0, %7 ], [ 0, %13 ], [ 0, %21 ], [ 0, %17 ], [ 0, %27 ]
  ret i32 %.0
}